(dp0
S'Mill coalgate leaking'
p1
S' c67'
p2
sS'MIll differential pressure high'
p3
S' c27'
p4
sS'Rocker arm leaking pf'
p5
S' c39'
p6
sS'Raw coal pipe leaking'
p7
S' c21'
p8
sS'Reject box inner door fails to close'
p9
S' c51'
p10
sS'Mill start up program faulty'
p11
S' c14'
p12
sS'Lub oil filters dirty'
p13
S' c29'
p14
sS'Lub oil filter change over v/v leaking oil'
p15
S' c63'
p16
sS'Reject line burst'
p17
S' c4'
p18
sS'Hydraulic oil filters dirty'
p19
S' c28'
p20
sS'Raw coal hang up'
p21
S' c25'
p22
sS'Mill VSD fault'
p23
S' c13'
p24
sS'Mill ribbon damaged'
p25
S' c56'
p26
sS'Feeder gearbox oil level low'
p27
S' c11'
p28
sS'Reject line blocked'
p29
S' c0'
p30
sS'Reject water trenches blocked'
p31
S' c5'
p32
sS'Seal air fan vibration'
p33
S' c24'
p34
sS'Secondary air damper indication fault'
p35
S' c53'
p36
sS'Seal air fan bearing damaged'
p37
S' c70'
p38
sS'PF distribution box leaking pf'
p39
S' c32'
p40
sS'Mill gearbox lub oil level low'
p41
S' c6'
p42
sS'Seal air diff pressure low alarm sustained'
p43
S' c69'
p44
sS'Feeder speed to be calibrated per load line'
p45
S' c33'
p46
sS'Quick close damper not driving'
p47
S' c38'
p48
sS'Feeder speed discrepancy'
p49
S' c9'
p50
sS'Reject box inspection glass damaged'
p51
S' c26'
p52
sS'Reject box inner door fails to open'
p53
S' c50'
p54
sS'Mill coalgate fails to open'
p55
S' c64'
p56
sS'Reject box burning'
p57
S' c31'
p58
sS'Roller position proxy fault'
p59
S' c49'
p60
sS'Reject box gratings damaged'
p61
S' c8'
p62
sS'Feeder blocked'
p63
S' c54'
p64
sS'Reject box inner door fails to seal'
p65
S' c57'
p66
sS'Raw coal pipe blocked'
p67
S' c22'
p68
sS'Mill motor de bearing oil level low'
p69
S' c47'
p70
sS'Reject line leaking'
p71
S' c3'
p72
sS'Reject jet pulsion v/v passing'
p73
S' c18'
p74
sS'Mill motor nde bearing oil level low'
p75
S' c48'
p76
sS'Feeder clean out conveyor damaged'
p77
S' c72'
p78
sS'Reject line holed'
p79
S' c2'
p80
sS'Hydraulic oil level low'
p81
S' c7'
p82
sS'Mill coalgate stuck'
p83
S' c66'
p84
sS'Reject box inner door handle turning loose'
p85
S' c58'
p86
sS'Hydraulic oil pressure low'
p87
S' c43'
p88
sS'Feeder belt misaligned'
p89
S' c35'
p90
sS'Mill outlet temperature spiking'
p91
S' c60'
p92
sS'Mill clean air curve to be done'
p93
S' c68'
p94
sS'Mill start up program stuck'
p95
S' c15'
p96
sS'PA flow fluctuating '
p97
S' c62'
p98
sS'Reject box inner door stuck'
p99
S' c73'
p100
sS'Reject line leaking water'
p101
S' c19'
p102
sS'Roller leaking pf'
p103
S' c36'
p104
sS'Mill coalgate fails to close'
p105
S' c65'
p106
sS'Feeder belt damaged'
p107
S' c34'
p108
sS'Mill rejecting excesively'
p109
S' c1'
p110
sS'OIl burner lance fails to ignite'
p111
S' c59'
p112
sS'Secondary air damper not controlling on auto'
p113
S' c37'
p114
sS'Secondary air damper not driving'
p115
S' c52'
p116
sS'No coal on belt alarm sustained'
p117
S' c42'
p118
sS'Feeder clean out conveyor shearing pin broken'
p119
S' c61'
p120
sS'Feeder fails to start'
p121
S' c16'
p122
sS'Feeder fault protection not working'
p123
S' c45'
p124
sS'Reject box holed'
p125
S' c46'
p126
sS'Reject jet pulsion pump leaking water'
p127
S' c20'
p128
sS'Feeder VSD fault'
p129
S' c12'
p130
sS'Feeder speed fails to pick up'
p131
S' c17'
p132
sS'Feeder blocked alarm sustained'
p133
S' c55'
p134
sS'Hydraulic oil level low alarm systained'
p135
S' c41'
p136
sS'Rocker arm leaking raw coal'
p137
S' c40'
p138
sS'Mill motor fails to start'
p139
S' c71'
p140
sS'Reject box inner door clinker'
p141
S' c30'
p142
sS'Feeder clean out conveyor alarm sustained'
p143
S' c10'
p144
sS'Feeder speed card error'
p145
S' c44'
p146
sS'Roller leaking raw coal'
p147
S' c23'
p148
s.