(dp0
S'Lub oil filter leaking oil'
p1
S' c160'
p2
sS'PA damper spindle loose in the blade'
p3
S' c197'
p4
sS'Raw coal pipe leaking'
p5
S' c21'
p6
sS'Secondary air damper indication fault'
p7
S' c53'
p8
sS'Mill load lines require new tapping points '
p9
S' c201'
p10
sS'Feeder stalled'
p11
S' c118'
p12
sS'PF leak - Mill boot seal'
p13
S' c190'
p14
sS'Secondary air load lines to be checked'
p15
S' c200'
p16
sS'Feeder full of coal'
p17
S' c117'
p18
sS'Reject ject pulsion pump valve stiff'
p19
S' c75'
p20
sS'Lub oil filter change over v/v leaking oil'
p21
S' c63'
p22
sS'Seal air fan bearing damaged'
p23
S' c70'
p24
sS'Feeder speed fluctuating '
p25
S' c157'
p26
sS'Seal air diff pressure low alarm sustained'
p27
S' c69'
p28
sS'Quick close damper not driving'
p29
S' c38'
p30
sS'Hydraulic oil leak'
p31
S' c127'
p32
sS'Reject box inspection glass damaged'
p33
S' c26'
p34
sS'Reject box gratings damaged'
p35
S' c8'
p36
sS'Feeder blocked'
p37
S' c54'
p38
sS'Reject box inner door fails to seal'
p39
S' c57'
p40
sS'Hydraulic oil temperature high'
p41
S' c129'
p42
sS'Lub oil cooling water flow meter dirty'
p43
S' c165'
p44
sS'Mill motor nde brg temp indication faulty'
p45
S' c112'
p46
sS'Reject jet pulsion v/v passing'
p47
S' c18'
p48
sS'Mill motor nde bearing oil level low'
p49
S' c48'
p50
sS'PA flow low with damper open'
p51
S' c152'
p52
sS'Mill gearbox lub oil level low'
p53
S' c6'
p54
sS'Reject box inner door handle turning loose'
p55
S' c58'
p56
sS'Mill roller seal air diff pressure fault'
p57
S' c176'
p58
sS'PA flow fluctuating '
p59
S' c62'
p60
sS'Mill start up program stuck'
p61
S' c15'
p62
sS'Mill motor de bearing oil level low'
p63
S' c47'
p64
sS'Feeder clean out conveyor shearing pin broken'
p65
S' c61'
p66
sS'Roller leaking pf'
p67
S' c36'
p68
sS'Feeder belt damaged'
p69
S' c34'
p70
sS'Feeder speed to be calibrated per load line'
p71
S' c33'
p72
sS'PF leak - Classifier outlet '
p73
S' c96'
p74
sS'PA damper actuator fault'
p75
S' c147'
p76
sS'Feeder tension pully fault'
p77
S' c189'
p78
sS'Feeder has a stone inside'
p79
S' c89'
p80
sS'Hydraulic cooling fan fault'
p81
S' c137'
p82
sS'Reject box leaking water'
p83
S' c100'
p84
sS'PF leak - Outlet duct'
p85
S' c97'
p86
sS'Feeder clean out conveyor fault'
p87
S' c186'
p88
sS'Feeder fails to start'
p89
S' c16'
p90
sS'Hydraulic oil level high alarm sustained'
p91
S' c138'
p92
sS'PA damper spindle nut needs to be replaced'
p93
S' c198'
p94
sS'Feeder VSD fault'
p95
S' c12'
p96
sS'Secondary air flow discrepency'
p97
S' c173'
p98
sS'Feeder speed fails to pick up'
p99
S' c17'
p100
sS'Secondary air damper stroke checked'
p101
S' c171'
p102
sS'Feeder blocked alarm sustained'
p103
S' c55'
p104
sS'PA duct leaking air'
p105
S' c80'
p106
sS'PA damper fails to close'
p107
S' c195'
p108
sS'Hydraulic cylinder not moving'
p109
S' c140'
p110
sS'Feeder clean out conveyor alarm sustained'
p111
S' c10'
p112
sS'Mill coalgate leaking'
p113
S' c67'
p114
sS'Lub oil filters dirty'
p115
S' c29'
p116
sS'PF leak - Mill tension ram'
p117
S' c92'
p118
sS'Hydraulic oil level low alarm systained'
p119
S' c41'
p120
sS'Reject box inner door fails to close'
p121
S' c51'
p122
sS'Reject box inner door fails to open'
p123
S' c50'
p124
sS'Feeder drive pulley fault'
p125
S' c187'
p126
sS'Reject water trenches blocked'
p127
S' c5'
p128
sS'Mill motor de brg temp high'
p129
S' c113'
p130
sS'Reject line holed'
p131
S' c2'
p132
sS'PF leak - Burner supply pipe'
p133
S' c95'
p134
sS'No coal on belt alarm not working'
p135
S' c91'
p136
sS'Reject box inspection door seal damaged'
p137
S' c154'
p138
sS'Hydraulic pump damaged'
p139
S' c107'
p140
sS'Reject box inner door stuck'
p141
S' c73'
p142
sS'Mill coalgate fails to open'
p143
S' c64'
p144
sS'Feeder clean out conveyor proxy fault'
p145
S' c121'
p146
sS'Lub oil flow meter dirty'
p147
S' c164'
p148
sS'Reject lights not working'
p149
S' c192'
p150
sS'Mill motor nde brg temp spiking'
p151
S' c110'
p152
sS'PA damper inspection door leaking air'
p153
S' c145'
p154
sS'Feeder speed discrepancy'
p155
S' c9'
p156
sS'Tempering air damper fails to drive'
p157
S' c177'
p158
sS'Roller position proxy fault'
p159
S' c49'
p160
sS'Hydraulic oil pump coupling sheared'
p161
S' c128'
p162
sS'Soot blower fault'
p163
S' c123'
p164
sS'PA duct holed'
p165
S' c150'
p166
sS'Mill motor de brg sight glass dirty'
p167
S' c102'
p168
sS'PA damper passing'
p169
S' c142'
p170
sS'Scaffolding request'
p171
S' c98'
p172
sS'Station cleaning to remove rejects'
p173
S' c193'
p174
sS'Tempering air damper mechanically stiff'
p175
S' c178'
p176
sS'Reject line burst'
p177
S' c4'
p178
sS'Hydraulic oil leak - Roller'
p179
S' c125'
p180
sS'Feeder no coal on belt alarm sustained'
p181
S' c90'
p182
sS'Station cleaning request'
p183
S' c155'
p184
sS'PA impulse line to be blown through'
p185
S' c143'
p186
sS'PF leak - Ducting'
p187
S' c94'
p188
sS'Milll motor nde brg sight glass dirty'
p189
S' c101'
p190
sS'Feeder speed indication faulty'
p191
S' c158'
p192
sS'Feeder speed card error'
p193
S' c44'
p194
sS'Secondary air damper not controlling on auto'
p195
S' c37'
p196
sS'MIll roller limits fault'
p197
S' c175'
p198
sS'Secondary air damper not driving'
p199
S' c52'
p200
sS'Feeder motor fan gaurd missing'
p201
S' c156'
p202
sS'PA impulse lines loose'
p203
S' c196'
p204
sS'Lub oil flow meter is wrong type'
p205
S' c169'
p206
sS'Lub oil filter diff pressure gauge faulty'
p207
S' c159'
p208
sS'Feeder fault protection not working'
p209
S' c45'
p210
sS'Reject box holed'
p211
S' c46'
p212
sS'Hydraulic pump motor fault'
p213
S' c135'
p214
sS'Raw coal pipe blocked'
p215
S' c22'
p216
sS'Lub oil flow switch discrepency'
p217
S' c167'
p218
sS'Feeder gearbox leaking oil'
p219
S' c120'
p220
sS'PA damper keeps tripping'
p221
S' c81'
p222
sS'PA damper module fault'
p223
S' c194'
p224
sS'Mill start up program faulty'
p225
S' c14'
p226
sS'Mill return to service assistance needed'
p227
S' c184'
p228
sS'PA damper fails to drive'
p229
S' c78'
p230
sS'Reject line leaking water'
p231
S' c19'
p232
sS'Mill ribbon damaged'
p233
S' c56'
p234
sS'Hydraulic oil leak - Accumulator'
p235
S' c130'
p236
sS'Mill coalgate fails to close'
p237
S' c65'
p238
sS'PA damper fails to control on auto'
p239
S' c87'
p240
sS'Reject box burning'
p241
S' c31'
p242
sS'PA duct compensator torn'
p243
S' c85'
p244
sS'Reject line leaking'
p245
S' c3'
p246
sS'Feeder clean out conveyor gearbox leaking oil'
p247
S' c116'
p248
sS'No coal on belt alarm sustained'
p249
S' c42'
p250
sS'Hydraulic oil level low'
p251
S' c7'
p252
sS'Feeder belt misaligned'
p253
S' c35'
p254
sS'Hydraulic oil pipe burst'
p255
S' c132'
p256
sS'Mill clean air curve to be done'
p257
S' c68'
p258
sS'Reject jet pulsion pump pressure low'
p259
S' c76'
p260
sS'Hydraulic oil leak - cylinder'
p261
S' c134'
p262
sS'Roller leaking raw coal'
p263
S' c23'
p264
sS'PA damper motor fault'
p265
S' c79'
p266
sS'Hydraulic oil leak - Piping'
p267
S' c131'
p268
sS'Mill rejecting excesively'
p269
S' c1'
p270
sS'PA damper link loose'
p271
S' c84'
p272
sS'Lub oil leak - Oil Cooler'
p273
S' c163'
p274
sS'Lub oil pressure low'
p275
S' c168'
p276
sS'Hydraulic pump keeps tripping'
p277
S' c106'
p278
sS'PA damper limits'
p279
S' c144'
p280
sS'Hydraulic system fault sustained'
p281
S' c124'
p282
sS'Reject box inner door burnt'
p283
S' c103'
p284
sS'PF leak - Burner box'
p285
S' c93'
p286
sS'Reject jet pulsion pump leaking water'
p287
S' c20'
p288
sS'Hydraulic pump fails to start'
p289
S' c105'
p290
sS'Hydraulic oil leak - Pump'
p291
S' c133'
p292
sS'Mill outlet temperature spiking'
p293
S' c60'
p294
sS'Reject box inner door fault'
p295
S' c191'
p296
sS'PA damper direction fault'
p297
S' c174'
p298
sS'Mill motor pullling high amps'
p299
S' c185'
p300
sS'Feeder gearbox oil level low'
p301
S' c11'
p302
sS'MIll differential pressure high'
p303
S' c27'
p304
sS'Rocker arm leaking pf'
p305
S' c39'
p306
sS'Lub oil flow meter out of commission '
p307
S' c166'
p308
sS'Rocker arm leaking raw coal'
p309
S' c40'
p310
sS'Feeder clean out conveyor damaged'
p311
S' c72'
p312
sS'PA damper mechanically stiff'
p313
S' c82'
p314
sS'PA damper bearing leaking air'
p315
S' c141'
p316
sS'Feeder clean out conveyor gearbox oil level low'
p317
S' c115'
p318
sS'Raw coal hang up'
p319
S' c25'
p320
sS'Reject box inner door limits to be set'
p321
S' c77'
p322
sS'Mill VSD fault'
p323
S' c13'
p324
sS'PA damper VSD fault'
p325
S' c88'
p326
sS'Reject line blocked'
p327
S' c0'
p328
sS'Reject cylinder damaged'
p329
S' c104'
p330
sS'Seal air fan vibration'
p331
S' c24'
p332
sS'PF distribution box leaking pf'
p333
S' c32'
p334
sS'Oil burner lance fault'
p335
S' c182'
p336
sS'PA flow low'
p337
S' c122'
p338
sS'Reject line damaged'
p339
S' c99'
p340
sS'PA flow to be verified by P&T'
p341
S' c149'
p342
sS'Feeder gearbox fault'
p343
S' c188'
p344
sS'PA damper to be stroke checked'
p345
S' c86'
p346
sS'Seal air pipe compensator leaking air'
p347
S' c202'
p348
sS'PA damper fault'
p349
S' c146'
p350
sS'PA flow transmitter to be calibrated'
p351
S' c148'
p352
sS'Mill motor nde brg temp high'
p353
S' c111'
p354
sS'Seal air fan suction filter fault'
p355
S' c203'
p356
sS'Mill coalgate stuck'
p357
S' c66'
p358
sS'OIl burner lance fails to ignite'
p359
S' c59'
p360
sS'Hydraulic oil pressure low'
p361
S' c43'
p362
sS'Lub oil supply pipe to gearbox leaking lub oil'
p363
S' c162'
p364
sS'Tempering air damper fails to control on auto'
p365
S' c179'
p366
sS'Secondary air damper actuator fault'
p367
S' c172'
p368
sS'Reject box inner door clinker'
p369
S' c30'
p370
sS'PA flow with damper closed'
p371
S' c153'
p372
sS'Mill outlet temperature setpoint not controlling'
p373
S' c181'
p374
sS'Mill motor de brg temp inidication faulty'
p375
S' c114'
p376
sS'Hydraulic pressure indication fault'
p377
S' c126'
p378
sS'PA damper fails to control'
p379
S' c83'
p380
sS'Mill bootseal leaking pf'
p381
S' c180'
p382
sS'Lub oil temperature gauge fault'
p383
S' c170'
p384
sS'PA flow indication reading zero'
p385
S' c151'
p386
sS'Hydraulic loading pressure fluctuating'
p387
S' c139'
p388
sS'Seal air fan motor fault'
p389
S' c204'
p390
sS'Reject line pipe disconnected'
p391
S' c74'
p392
sS'PA load lines to be checked'
p393
S' c199'
p394
sS'PA damper indication faulty'
p395
S' c108'
p396
sS'Hydraulic oil filters dirty'
p397
S' c28'
p398
sS'Oil burner fault'
p399
S' c183'
p400
sS'Feeder current reading zero'
p401
S' c119'
p402
sS'Hydraulic pump fault'
p403
S' c136'
p404
sS'Lub oil pump leaking lub oil'
p405
S' c161'
p406
sS'Mill motor fails to start'
p407
S' c71'
p408
sS'PA damper sticking'
p409
S' c109'
p410
s.