(dp0
S'Feeder full of coal'
p1
S' c117'
p2
sS'Secondary air damper indication fault'
p3
S' c53'
p4
sS'Feeder stalled'
p5
S' c118'
p6
sS'Raw coal pipe leaking'
p7
S' c21'
p8
sS'Reject ject pulsion pump valve stiff'
p9
S' c75'
p10
sS'Lub oil filter change over v/v leaking oil'
p11
S' c63'
p12
sS'Seal air fan bearing damaged'
p13
S' c70'
p14
sS'Seal air diff pressure low alarm sustained'
p15
S' c69'
p16
sS'Quick close damper not driving'
p17
S' c38'
p18
sS'Reject box inspection glass damaged'
p19
S' c26'
p20
sS'Reject box gratings damaged'
p21
S' c8'
p22
sS'Feeder blocked'
p23
S' c54'
p24
sS'Reject box inner door fails to seal'
p25
S' c57'
p26
sS'Mill motor nde brg temp indication faulty'
p27
S' c112'
p28
sS'Reject jet pulsion v/v passing'
p29
S' c18'
p30
sS'Mill motor nde bearing oil level low'
p31
S' c48'
p32
sS'Mill gearbox lub oil level low'
p33
S' c6'
p34
sS'Reject box inner door handle turning loose'
p35
S' c58'
p36
sS'Reject line holed'
p37
S' c2'
p38
sS'PA flow fluctuating '
p39
S' c62'
p40
sS'Mill start up program stuck'
p41
S' c15'
p42
sS'Mill motor de bearing oil level low'
p43
S' c47'
p44
sS'Feeder clean out conveyor shearing pin broken'
p45
S' c61'
p46
sS'Roller leaking pf'
p47
S' c36'
p48
sS'Feeder belt damaged'
p49
S' c34'
p50
sS'Feeder speed to be calibrated per load line'
p51
S' c33'
p52
sS'PF leak - Classifier outlet '
p53
S' c96'
p54
sS'Feeder has a stone inside'
p55
S' c89'
p56
sS'Reject box leaking water'
p57
S' c100'
p58
sS'Feeder fails to start'
p59
S' c16'
p60
sS'Feeder VSD fault'
p61
S' c12'
p62
sS'Feeder speed fails to pick up'
p63
S' c17'
p64
sS'Feeder blocked alarm sustained'
p65
S' c55'
p66
sS'PA duct leaking air'
p67
S' c80'
p68
sS'Feeder clean out conveyor alarm sustained'
p69
S' c10'
p70
sS'Mill coalgate leaking'
p71
S' c67'
p72
sS'Lub oil filters dirty'
p73
S' c29'
p74
sS'PF leak - Mill tension ram'
p75
S' c92'
p76
sS'Hydraulic oil level low alarm systained'
p77
S' c41'
p78
sS'Reject box inner door fails to close'
p79
S' c51'
p80
sS'Reject box inner door fails to open'
p81
S' c50'
p82
sS'Reject water trenches blocked'
p83
S' c5'
p84
sS'Mill motor de brg temp high'
p85
S' c113'
p86
sS'Reject jet pulsion pump pressure low'
p87
S' c76'
p88
sS'PF leak - Burner supply pipe'
p89
S' c95'
p90
sS'No coal on belt alarm not working'
p91
S' c91'
p92
sS'Hydraulic pump damaged'
p93
S' c107'
p94
sS'Feeder gearbox oil level low'
p95
S' c11'
p96
sS'Mill coalgate fails to open'
p97
S' c64'
p98
sS'Feeder clean out conveyor proxy fault'
p99
S' c121'
p100
sS'Mill motor nde brg temp spiking'
p101
S' c110'
p102
sS'Feeder speed discrepancy'
p103
S' c9'
p104
sS'Roller position proxy fault'
p105
S' c49'
p106
sS'PA damper sticking'
p107
S' c109'
p108
sS'Mill motor de brg sight glass dirty'
p109
S' c102'
p110
sS'Scaffolding request'
p111
S' c98'
p112
sS'Reject line burst'
p113
S' c4'
p114
sS'Feeder no coal on belt alarm sustained'
p115
S' c90'
p116
sS'Feeder speed card error'
p117
S' c44'
p118
sS'Milll motor nde brg sight glass dirty'
p119
S' c101'
p120
sS'PF leak - Ducting'
p121
S' c94'
p122
sS'Secondary air damper not controlling on auto'
p123
S' c37'
p124
sS'Secondary air damper not driving'
p125
S' c52'
p126
sS'No coal on belt alarm sustained'
p127
S' c42'
p128
sS'Feeder fault protection not working'
p129
S' c45'
p130
sS'Reject box holed'
p131
S' c46'
p132
sS'Raw coal pipe blocked'
p133
S' c22'
p134
sS'Feeder gearbox leaking oil'
p135
S' c120'
p136
sS'PA damper keeps tripping'
p137
S' c81'
p138
sS'Mill start up program faulty'
p139
S' c14'
p140
sS'PA damper fails to drive'
p141
S' c78'
p142
sS'Reject line leaking water'
p143
S' c19'
p144
sS'Mill ribbon damaged'
p145
S' c56'
p146
sS'Mill coalgate fails to close'
p147
S' c65'
p148
sS'Reject box burning'
p149
S' c31'
p150
sS'PA duct compensator torn'
p151
S' c85'
p152
sS'Reject line leaking'
p153
S' c3'
p154
sS'Feeder clean out conveyor damaged'
p155
S' c72'
p156
sS'Hydraulic oil level low'
p157
S' c7'
p158
sS'Feeder belt misaligned'
p159
S' c35'
p160
sS'Mill clean air curve to be done'
p161
S' c68'
p162
sS'PA damper fails to control'
p163
S' c83'
p164
sS'Roller leaking raw coal'
p165
S' c23'
p166
sS'PA damper motor fault'
p167
S' c79'
p168
sS'Mill rejecting excesively'
p169
S' c1'
p170
sS'PA damper link loose'
p171
S' c84'
p172
sS'Hydraulic pump keeps tripping'
p173
S' c106'
p174
sS'PF leak - Outlet duct'
p175
S' c97'
p176
sS'Reject box inner door burnt'
p177
S' c103'
p178
sS'PF leak - Burner box'
p179
S' c93'
p180
sS'Reject jet pulsion pump leaking water'
p181
S' c20'
p182
sS'Hydraulic pump fails to start'
p183
S' c105'
p184
sS'Mill outlet temperature spiking'
p185
S' c60'
p186
sS'Reject box inner door stuck'
p187
S' c73'
p188
sS'MIll differential pressure high'
p189
S' c27'
p190
sS'Rocker arm leaking pf'
p191
S' c39'
p192
sS'PA damper fails to control on auto'
p193
S' c87'
p194
sS'PA damper mechanically stiff'
p195
S' c82'
p196
sS'Feeder clean out conveyor gearbox oil level low'
p197
S' c115'
p198
sS'Raw coal hang up'
p199
S' c25'
p200
sS'Reject box inner door limits to be set'
p201
S' c77'
p202
sS'Mill VSD fault'
p203
S' c13'
p204
sS'PA damper VSD fault'
p205
S' c88'
p206
sS'Reject line blocked'
p207
S' c0'
p208
sS'Reject cylinder damaged'
p209
S' c104'
p210
sS'Seal air fan vibration'
p211
S' c24'
p212
sS'PF distribution box leaking pf'
p213
S' c32'
p214
sS'PA flow low'
p215
S' c122'
p216
sS'Reject line damaged'
p217
S' c99'
p218
sS'PA damper to be stroke checked'
p219
S' c86'
p220
sS'Mill motor nde brg temp high'
p221
S' c111'
p222
sS'Mill coalgate stuck'
p223
S' c66'
p224
sS'OIl burner lance fails to ignite'
p225
S' c59'
p226
sS'Hydraulic oil pressure low'
p227
S' c43'
p228
sS'Reject box inner door clinker'
p229
S' c30'
p230
sS'Mill motor de brg temp inidication faulty'
p231
S' c114'
p232
sS'Feeder clean out conveyor gearbox leaking oil'
p233
S' c116'
p234
sS'Reject line pipe disconnected'
p235
S' c74'
p236
sS'PA damper indication faulty'
p237
S' c108'
p238
sS'Hydraulic oil filters dirty'
p239
S' c28'
p240
sS'Feeder current reading zero'
p241
S' c119'
p242
sS'Rocker arm leaking raw coal'
p243
S' c40'
p244
sS'Mill motor fails to start'
p245
S' c71'
p246
s.